target datalayout = "e-m:e-p270:32:32-p271:32:32-p272:64:64-i64:64-i128:128-f80:128-n8:16:32:64-S128"
target triple = "x86_64-pc-linux-gnu"

%struct.RangeBound = type { i64, i8, i8, i8 }
%struct.FmgrInfo = type { ptr, i32, i16, i8, i8, i8, ptr, ptr, ptr }
%struct.TypeCacheEntry = type { i32, i32, i16, i8, i8, i8, i8, i32, i32, i32, i32, i32, i32, i32, i32, i32, i32, i32, i32, i32, i32, %struct.FmgrInfo, %struct.FmgrInfo, %struct.FmgrInfo, %struct.FmgrInfo, ptr, i64, ptr, i32, i32, %struct.FmgrInfo, %struct.FmgrInfo, %struct.FmgrInfo, ptr, i32, i32, ptr, i32, ptr, ptr }
%struct.RangeType = type { i32, i32 }
%struct.anon = type { i32, [0 x i8] }

@.str.1 = private unnamed_addr constant [13 x i8] c"rangetypes.c\00", align 1
@.str.2 = private unnamed_addr constant [25 x i8] c"range types do not match\00", align 1
@__func__.range_adjacent_internal = private unnamed_addr constant [24 x i8] c"range_adjacent_internal\00", align 1

; Function Attrs: inlinehint nounwind uwtable
define internal i32 @DatumGetInt32(i64 noundef %0) #2 {
  %2 = alloca i64, align 8
  store i64 %0, ptr %2, align 8
  %3 = load i64, ptr %2, align 8
  %4 = trunc i64 %3 to i32
  ret i32 %4
}

; Function Attrs: nounwind uwtable
define dso_local signext i8 @range_get_flags(ptr noundef %0) #0 {
  %2 = alloca ptr, align 8
  store ptr %0, ptr %2, align 8
  %3 = load ptr, ptr %2, align 8
  %4 = load ptr, ptr %2, align 8
  %5 = getelementptr inbounds nuw %struct.anon, ptr %4, i32 0, i32 0
  %6 = load i32, ptr %5, align 4
  %7 = lshr i32 %6, 2
  %8 = and i32 %7, 1073741823
  %9 = zext i32 %8 to i64
  %10 = getelementptr inbounds nuw i8, ptr %3, i64 %9
  %11 = getelementptr inbounds i8, ptr %10, i64 -1
  %12 = load i8, ptr %11, align 1
  ret i8 %12
}

; Function Attrs: nounwind uwtable
define dso_local i32 @range_cmp_bound_values(ptr noundef %0, ptr noundef %1, ptr noundef %2) #0 {
  %4 = alloca i32, align 4
  %5 = alloca ptr, align 8
  %6 = alloca ptr, align 8
  %7 = alloca ptr, align 8
  store ptr %0, ptr %5, align 8
  store ptr %1, ptr %6, align 8
  store ptr %2, ptr %7, align 8
  %8 = load ptr, ptr %6, align 8
  %9 = getelementptr inbounds nuw %struct.RangeBound, ptr %8, i32 0, i32 1
  %10 = load i8, ptr %9, align 8, !range !7, !noundef !8
  %11 = trunc i8 %10 to i1
  br i1 %11, label %12, label %36

12:                                               ; preds = %3
  %13 = load ptr, ptr %7, align 8
  %14 = getelementptr inbounds nuw %struct.RangeBound, ptr %13, i32 0, i32 1
  %15 = load i8, ptr %14, align 8, !range !7, !noundef !8
  %16 = trunc i8 %15 to i1
  br i1 %16, label %17, label %36

17:                                               ; preds = %12
  %18 = load ptr, ptr %6, align 8
  %19 = getelementptr inbounds nuw %struct.RangeBound, ptr %18, i32 0, i32 3
  %20 = load i8, ptr %19, align 2, !range !7, !noundef !8
  %21 = trunc i8 %20 to i1
  %22 = zext i1 %21 to i32
  %23 = load ptr, ptr %7, align 8
  %24 = getelementptr inbounds nuw %struct.RangeBound, ptr %23, i32 0, i32 3
  %25 = load i8, ptr %24, align 2, !range !7, !noundef !8
  %26 = trunc i8 %25 to i1
  %27 = zext i1 %26 to i32
  %28 = icmp eq i32 %22, %27
  br i1 %28, label %29, label %30

29:                                               ; preds = %17
  store i32 0, ptr %4, align 4
  br label %74

30:                                               ; preds = %17
  %31 = load ptr, ptr %6, align 8
  %32 = getelementptr inbounds nuw %struct.RangeBound, ptr %31, i32 0, i32 3
  %33 = load i8, ptr %32, align 2, !range !7, !noundef !8
  %34 = trunc i8 %33 to i1
  %35 = select i1 %34, i32 -1, i32 1
  store i32 %35, ptr %4, align 4
  br label %74

36:                                               ; preds = %12, %3
  %37 = load ptr, ptr %6, align 8
  %38 = getelementptr inbounds nuw %struct.RangeBound, ptr %37, i32 0, i32 1
  %39 = load i8, ptr %38, align 8, !range !7, !noundef !8
  %40 = trunc i8 %39 to i1
  br i1 %40, label %41, label %47

41:                                               ; preds = %36
  %42 = load ptr, ptr %6, align 8
  %43 = getelementptr inbounds nuw %struct.RangeBound, ptr %42, i32 0, i32 3
  %44 = load i8, ptr %43, align 2, !range !7, !noundef !8
  %45 = trunc i8 %44 to i1
  %46 = select i1 %45, i32 -1, i32 1
  store i32 %46, ptr %4, align 4
  br label %74

47:                                               ; preds = %36
  %48 = load ptr, ptr %7, align 8
  %49 = getelementptr inbounds nuw %struct.RangeBound, ptr %48, i32 0, i32 1
  %50 = load i8, ptr %49, align 8, !range !7, !noundef !8
  %51 = trunc i8 %50 to i1
  br i1 %51, label %52, label %58

52:                                               ; preds = %47
  %53 = load ptr, ptr %7, align 8
  %54 = getelementptr inbounds nuw %struct.RangeBound, ptr %53, i32 0, i32 3
  %55 = load i8, ptr %54, align 2, !range !7, !noundef !8
  %56 = trunc i8 %55 to i1
  %57 = select i1 %56, i32 1, i32 -1
  store i32 %57, ptr %4, align 4
  br label %74

58:                                               ; preds = %47
  br label %59

59:                                               ; preds = %58
  br label %60

60:                                               ; preds = %59
  %61 = load ptr, ptr %5, align 8
  %62 = getelementptr inbounds nuw %struct.TypeCacheEntry, ptr %61, i32 0, i32 30
  %63 = load ptr, ptr %5, align 8
  %64 = getelementptr inbounds nuw %struct.TypeCacheEntry, ptr %63, i32 0, i32 29
  %65 = load i32, ptr %64, align 4
  %66 = load ptr, ptr %6, align 8
  %67 = getelementptr inbounds nuw %struct.RangeBound, ptr %66, i32 0, i32 0
  %68 = load i64, ptr %67, align 8
  %69 = load ptr, ptr %7, align 8
  %70 = getelementptr inbounds nuw %struct.RangeBound, ptr %69, i32 0, i32 0
  %71 = load i64, ptr %70, align 8
  %72 = call i64 @FunctionCall2Coll(ptr noundef %62, i32 noundef %65, i64 noundef %68, i64 noundef %71)
  %73 = call i32 @DatumGetInt32(i64 noundef %72)
  store i32 %73, ptr %4, align 4
  br label %74

74:                                               ; preds = %60, %52, %41, %30, %29
  %75 = load i32, ptr %4, align 4
  ret i32 %75
}

; Function Attrs: nounwind uwtable
define dso_local zeroext i1 @bounds_adjacent(ptr noundef %0, i64 %1, i64 %2, i64 %3, i64 %4) #0 {
  %6 = alloca i1, align 1
  %7 = alloca %struct.RangeBound, align 8
  %8 = alloca %struct.RangeBound, align 8
  %9 = alloca ptr, align 8
  %10 = alloca i32, align 4
  %11 = alloca ptr, align 8
  %12 = alloca i32, align 4
  %13 = getelementptr inbounds nuw { i64, i64 }, ptr %7, i32 0, i32 0
  store i64 %1, ptr %13, align 8
  %14 = getelementptr inbounds nuw { i64, i64 }, ptr %7, i32 0, i32 1
  store i64 %2, ptr %14, align 8
  %15 = getelementptr inbounds nuw { i64, i64 }, ptr %8, i32 0, i32 0
  store i64 %3, ptr %15, align 8
  %16 = getelementptr inbounds nuw { i64, i64 }, ptr %8, i32 0, i32 1
  store i64 %4, ptr %16, align 8
  store ptr %0, ptr %9, align 8
  call void @llvm.lifetime.start.p0(i64 4, ptr %10) #10
  %17 = load ptr, ptr %9, align 8
  %18 = call i32 @range_cmp_bound_values(ptr noundef %17, ptr noundef %7, ptr noundef %8)
  store i32 %18, ptr %10, align 4
  %19 = load i32, ptr %10, align 4
  %20 = icmp slt i32 %19, 0
  br i1 %20, label %21, label %51

21:                                               ; preds = %5
  call void @llvm.lifetime.start.p0(i64 8, ptr %11) #10
  %22 = load ptr, ptr %9, align 8
  %23 = getelementptr inbounds nuw %struct.TypeCacheEntry, ptr %22, i32 0, i32 31
  %24 = getelementptr inbounds nuw %struct.FmgrInfo, ptr %23, i32 0, i32 1
  %25 = load i32, ptr %24, align 8
  %26 = icmp ne i32 %25, 0
  br i1 %26, label %28, label %27

27:                                               ; preds = %21
  store i1 false, ptr %6, align 1
  store i32 1, ptr %12, align 4
  br label %50

28:                                               ; preds = %21
  %29 = getelementptr inbounds nuw %struct.RangeBound, ptr %7, i32 0, i32 2
  %30 = load i8, ptr %29, align 1, !range !7, !noundef !8
  %31 = trunc i8 %30 to i1
  %32 = xor i1 %31, true
  %33 = getelementptr inbounds nuw %struct.RangeBound, ptr %7, i32 0, i32 2
  %34 = zext i1 %32 to i8
  store i8 %34, ptr %33, align 1
  %35 = getelementptr inbounds nuw %struct.RangeBound, ptr %8, i32 0, i32 2
  %36 = load i8, ptr %35, align 1, !range !7, !noundef !8
  %37 = trunc i8 %36 to i1
  %38 = xor i1 %37, true
  %39 = getelementptr inbounds nuw %struct.RangeBound, ptr %8, i32 0, i32 2
  %40 = zext i1 %38 to i8
  store i8 %40, ptr %39, align 1
  %41 = getelementptr inbounds nuw %struct.RangeBound, ptr %7, i32 0, i32 3
  store i8 1, ptr %41, align 2
  %42 = getelementptr inbounds nuw %struct.RangeBound, ptr %8, i32 0, i32 3
  store i8 0, ptr %42, align 2
  %43 = load ptr, ptr %9, align 8
  %44 = call ptr @make_range(ptr noundef %43, ptr noundef %7, ptr noundef %8, i1 noundef zeroext false, ptr noundef null)
  store ptr %44, ptr %11, align 8
  %45 = load ptr, ptr %11, align 8
  %46 = call signext i8 @range_get_flags(ptr noundef %45)
  %47 = sext i8 %46 to i32
  %48 = and i32 %47, 1
  %49 = icmp ne i32 %48, 0
  store i1 %49, ptr %6, align 1
  store i32 1, ptr %12, align 4
  br label %50

50:                                               ; preds = %28, %27
  call void @llvm.lifetime.end.p0(i64 8, ptr %11) #10
  br label %65

51:                                               ; preds = %5
  %52 = load i32, ptr %10, align 4
  %53 = icmp eq i32 %52, 0
  br i1 %53, label %54, label %64

54:                                               ; preds = %51
  %55 = getelementptr inbounds nuw %struct.RangeBound, ptr %7, i32 0, i32 2
  %56 = load i8, ptr %55, align 1, !range !7, !noundef !8
  %57 = trunc i8 %56 to i1
  %58 = zext i1 %57 to i32
  %59 = getelementptr inbounds nuw %struct.RangeBound, ptr %8, i32 0, i32 2
  %60 = load i8, ptr %59, align 1, !range !7, !noundef !8
  %61 = trunc i8 %60 to i1
  %62 = zext i1 %61 to i32
  %63 = icmp ne i32 %58, %62
  store i1 %63, ptr %6, align 1
  store i32 1, ptr %12, align 4
  br label %65

64:                                               ; preds = %51
  store i1 false, ptr %6, align 1
  store i32 1, ptr %12, align 4
  br label %65

65:                                               ; preds = %64, %54, %50
  call void @llvm.lifetime.end.p0(i64 4, ptr %10) #10
  %66 = load i1, ptr %6, align 1
  ret i1 %66
}

; Function Attrs: nounwind uwtable
define dso_local zeroext i1 @range_adjacent_internal(ptr noundef %0, ptr noundef %1, ptr noundef %2) #0 {
  %4 = alloca i1, align 1
  %5 = alloca ptr, align 8
  %6 = alloca ptr, align 8
  %7 = alloca ptr, align 8
  %8 = alloca %struct.RangeBound, align 8
  %9 = alloca %struct.RangeBound, align 8
  %10 = alloca %struct.RangeBound, align 8
  %11 = alloca %struct.RangeBound, align 8
  %12 = alloca i8, align 1
  %13 = alloca i8, align 1
  %14 = alloca i32, align 4
  store ptr %0, ptr %5, align 8
  store ptr %1, ptr %6, align 8
  store ptr %2, ptr %7, align 8
  call void @llvm.lifetime.start.p0(i64 16, ptr %8) #10
  call void @llvm.lifetime.start.p0(i64 16, ptr %9) #10
  call void @llvm.lifetime.start.p0(i64 16, ptr %10) #10
  call void @llvm.lifetime.start.p0(i64 16, ptr %11) #10
  call void @llvm.lifetime.start.p0(i64 1, ptr %12) #10
  call void @llvm.lifetime.start.p0(i64 1, ptr %13) #10
  %15 = load ptr, ptr %6, align 8
  %16 = getelementptr inbounds nuw %struct.RangeType, ptr %15, i32 0, i32 1
  %17 = load i32, ptr %16, align 4
  %18 = load ptr, ptr %7, align 8
  %19 = getelementptr inbounds nuw %struct.RangeType, ptr %18, i32 0, i32 1
  %20 = load i32, ptr %19, align 4
  %21 = icmp ne i32 %17, %20
  br i1 %21, label %22, label %33

22:                                               ; preds = %3
  br label %23

23:                                               ; preds = %22
  br i1 true, label %24, label %26

24:                                               ; preds = %23
  %25 = call zeroext i1 @errstart_cold(i32 noundef 21, ptr noundef null) #11
  br i1 %25, label %28, label %30

26:                                               ; preds = %23
  %27 = call zeroext i1 @errstart(i32 noundef 21, ptr noundef null)
  br i1 %27, label %28, label %30

28:                                               ; preds = %26, %24
  %29 = call i32 (ptr, ...) @errmsg_internal(ptr noundef @.str.2)
  call void @errfinish(ptr noundef @.str.1, i32 noundef 809, ptr noundef @__func__.range_adjacent_internal)
  br label %30

30:                                               ; preds = %28, %26, %24
  unreachable

31:                                               ; No predecessors!
  br label %32

32:                                               ; preds = %31
  br label %33

33:                                               ; preds = %32, %3
  %34 = load ptr, ptr %5, align 8
  %35 = load ptr, ptr %6, align 8
  call void @range_deserialize(ptr noundef %34, ptr noundef %35, ptr noundef %8, ptr noundef %10, ptr noundef %12)
  %36 = load ptr, ptr %5, align 8
  %37 = load ptr, ptr %7, align 8
  call void @range_deserialize(ptr noundef %36, ptr noundef %37, ptr noundef %9, ptr noundef %11, ptr noundef %13)
  %38 = load i8, ptr %12, align 1, !range !7, !noundef !8
  %39 = trunc i8 %38 to i1
  br i1 %39, label %43, label %40

40:                                               ; preds = %33
  %41 = load i8, ptr %13, align 1, !range !7, !noundef !8
  %42 = trunc i8 %41 to i1
  br i1 %42, label %43, label %44

43:                                               ; preds = %40, %33
  store i1 false, ptr %4, align 1
  store i32 1, ptr %14, align 4
  br label %68

44:                                               ; preds = %40
  %45 = load ptr, ptr %5, align 8
  %46 = getelementptr inbounds nuw { i64, i64 }, ptr %10, i32 0, i32 0
  %47 = load i64, ptr %46, align 8
  %48 = getelementptr inbounds nuw { i64, i64 }, ptr %10, i32 0, i32 1
  %49 = load i64, ptr %48, align 8
  %50 = getelementptr inbounds nuw { i64, i64 }, ptr %9, i32 0, i32 0
  %51 = load i64, ptr %50, align 8
  %52 = getelementptr inbounds nuw { i64, i64 }, ptr %9, i32 0, i32 1
  %53 = load i64, ptr %52, align 8
  %54 = call zeroext i1 @bounds_adjacent(ptr noundef %45, i64 %47, i64 %49, i64 %51, i64 %53)
  br i1 %54, label %66, label %55

55:                                               ; preds = %44
  %56 = load ptr, ptr %5, align 8
  %57 = getelementptr inbounds nuw { i64, i64 }, ptr %11, i32 0, i32 0
  %58 = load i64, ptr %57, align 8
  %59 = getelementptr inbounds nuw { i64, i64 }, ptr %11, i32 0, i32 1
  %60 = load i64, ptr %59, align 8
  %61 = getelementptr inbounds nuw { i64, i64 }, ptr %8, i32 0, i32 0
  %62 = load i64, ptr %61, align 8
  %63 = getelementptr inbounds nuw { i64, i64 }, ptr %8, i32 0, i32 1
  %64 = load i64, ptr %63, align 8
  %65 = call zeroext i1 @bounds_adjacent(ptr noundef %56, i64 %58, i64 %60, i64 %62, i64 %64)
  br label %66

66:                                               ; preds = %55, %44
  %67 = phi i1 [ true, %44 ], [ %65, %55 ]
  store i1 %67, ptr %4, align 1
  store i32 1, ptr %14, align 4
  br label %68

68:                                               ; preds = %66, %43
  call void @llvm.lifetime.end.p0(i64 1, ptr %13) #10
  call void @llvm.lifetime.end.p0(i64 1, ptr %12) #10
  call void @llvm.lifetime.end.p0(i64 16, ptr %11) #10
  call void @llvm.lifetime.end.p0(i64 16, ptr %10) #10
  call void @llvm.lifetime.end.p0(i64 16, ptr %9) #10
  call void @llvm.lifetime.end.p0(i64 16, ptr %8) #10
  %69 = load i1, ptr %4, align 1
  ret i1 %69
}