; Function Attrs: nounwind uwtable
define dso_local zeroext i1 @range_adjacent_internal(ptr noundef %0, ptr noundef %1, ptr noundef %2) local_unnamed_addr #0 {
  %4 = alloca %struct.RangeBound, align 8
  %5 = alloca %struct.RangeBound, align 8
  %6 = alloca %struct.RangeBound, align 8
  %7 = alloca %struct.RangeBound, align 8
  %8 = alloca %struct.RangeBound, align 8
  %9 = alloca %struct.RangeBound, align 8
  %10 = alloca %struct.RangeBound, align 8
  %11 = alloca %struct.RangeBound, align 8
  %12 = alloca i8, align 1
  %13 = alloca i8, align 1
  call void @llvm.lifetime.start.p0(i64 16, ptr nonnull %8) #14
  call void @llvm.lifetime.start.p0(i64 16, ptr nonnull %9) #14
  call void @llvm.lifetime.start.p0(i64 16, ptr nonnull %10) #14
  call void @llvm.lifetime.start.p0(i64 16, ptr nonnull %11) #14
  call void @llvm.lifetime.start.p0(i64 1, ptr nonnull %12) #14
  call void @llvm.lifetime.start.p0(i64 1, ptr nonnull %13) #14
  %14 = getelementptr inbounds nuw i8, ptr %1, i64 4
  %15 = load i32, ptr %14, align 4
  %16 = getelementptr inbounds nuw i8, ptr %2, i64 4
  %17 = load i32, ptr %16, align 4
  %.not = icmp eq i32 %15, %17
  br i1 %.not, label %21, label %18

18:                                               ; preds = %3
  %19 = tail call zeroext i1 @errstart_cold(i32 noundef 21, ptr noundef null) #16
  tail call void @llvm.assume(i1 %19)
  %20 = tail call i32 (ptr, ...) @errmsg_internal(ptr noundef nonnull @.str.2) #14
  tail call void @errfinish(ptr noundef nonnull @.str.1, i32 noundef 809, ptr noundef nonnull @__func__.range_adjacent_internal) #14
  unreachable

21:                                               ; preds = %3
  call void @range_deserialize(ptr noundef %0, ptr noundef nonnull %1, ptr noundef nonnull %8, ptr noundef nonnull %10, ptr noundef nonnull %12)
  call void @range_deserialize(ptr noundef %0, ptr noundef nonnull %2, ptr noundef nonnull %9, ptr noundef nonnull %11, ptr noundef nonnull %13)
  %22 = load i8, ptr %12, align 1, !range !7, !noundef !8
  %23 = trunc nuw i8 %22 to i1
  br i1 %23, label %134, label %24

24:                                               ; preds = %21
  %25 = load i8, ptr %13, align 1, !range !7, !noundef !8
  %26 = trunc nuw i8 %25 to i1
  br i1 %26, label %134, label %27

27:                                               ; preds = %24
  %28 = load i64, ptr %10, align 8
  %29 = getelementptr inbounds nuw i8, ptr %10, i64 8
  %30 = load i64, ptr %29, align 8
  %31 = load i64, ptr %9, align 8
  %32 = getelementptr inbounds nuw i8, ptr %9, i64 8
  %33 = load i64, ptr %32, align 8
  call void @llvm.lifetime.start.p0(i64 16, ptr nonnull %6)
  call void @llvm.lifetime.start.p0(i64 16, ptr nonnull %7)
  store i64 %28, ptr %6, align 8
  %34 = getelementptr inbounds nuw i8, ptr %6, i64 8
  store i64 %30, ptr %34, align 8
  store i64 %31, ptr %7, align 8
  %35 = getelementptr inbounds nuw i8, ptr %7, i64 8
  store i64 %33, ptr %35, align 8
  %36 = trunc i64 %30 to i1
  %37 = trunc i64 %33 to i1
  %38 = lshr i64 %33, 16
  %39 = trunc i64 %38 to i8
  %40 = lshr i64 %30, 16
  %41 = trunc i64 %40 to i8
  %42 = lshr i64 %30, 8
  %43 = trunc i64 %42 to i8
  %44 = lshr i64 %33, 8
  %45 = trunc i64 %44 to i8
  br i1 %36, label %46, label %53

46:                                               ; preds = %27
  br i1 %37, label %47, label %51

47:                                               ; preds = %46
  %48 = icmp eq i8 %41, %39
  br i1 %48, label %range_cmp_bound_values.exit.thread.thread15.i, label %49

49:                                               ; preds = %47
  %50 = trunc i64 %40 to i1
  br i1 %50, label %range_cmp_bound_values.exit.thread12.i, label %bounds_adjacent.exit.thread

51:                                               ; preds = %46
  %52 = trunc i64 %40 to i1
  br i1 %52, label %range_cmp_bound_values.exit.thread12.i, label %bounds_adjacent.exit.thread

53:                                               ; preds = %27
  br i1 %37, label %54, label %range_cmp_bound_values.exit.i

54:                                               ; preds = %53
  %55 = trunc i64 %38 to i1
  br i1 %55, label %bounds_adjacent.exit.thread, label %range_cmp_bound_values.exit.thread12.i

range_cmp_bound_values.exit.i:                    ; preds = %53
  %56 = getelementptr inbounds nuw i8, ptr %0, i64 296
  %57 = getelementptr inbounds nuw i8, ptr %0, i64 292
  %58 = load i32, ptr %57, align 4
  %59 = tail call i64 @FunctionCall2Coll(ptr noundef nonnull %56, i32 noundef %58, i64 noundef %28, i64 noundef %31) #14
  %60 = trunc i64 %59 to i32
  %61 = icmp slt i32 %60, 0
  br i1 %61, label %range_cmp_bound_values.exit.thread12.i, label %range_cmp_bound_values.exit.thread.i

range_cmp_bound_values.exit.thread12.i:           ; preds = %range_cmp_bound_values.exit.i, %54, %51, %49
  %62 = getelementptr inbounds nuw i8, ptr %0, i64 352
  %63 = load i32, ptr %62, align 8
  %.not.i = icmp eq i32 %63, 0
  br i1 %.not.i, label %bounds_adjacent.exit.thread, label %bounds_adjacent.exit

range_cmp_bound_values.exit.thread.i:             ; preds = %range_cmp_bound_values.exit.i
  %64 = icmp eq i32 %60, 0
  br i1 %64, label %range_cmp_bound_values.exit.thread.thread15.i, label %bounds_adjacent.exit.thread

range_cmp_bound_values.exit.thread.thread15.i:    ; preds = %range_cmp_bound_values.exit.thread.i, %47
  %.not18 = icmp eq i8 %43, %45
  call void @llvm.lifetime.end.p0(i64 16, ptr nonnull %6)
  call void @llvm.lifetime.end.p0(i64 16, ptr nonnull %7)
  br i1 %.not18, label %79, label %134

bounds_adjacent.exit.thread:                      ; preds = %range_cmp_bound_values.exit.thread12.i, %range_cmp_bound_values.exit.thread.i, %51, %49, %54
  call void @llvm.lifetime.end.p0(i64 16, ptr nonnull %6)
  call void @llvm.lifetime.end.p0(i64 16, ptr nonnull %7)
  br label %79

bounds_adjacent.exit:                             ; preds = %range_cmp_bound_values.exit.thread12.i
  %65 = getelementptr inbounds nuw i8, ptr %6, i64 9
  %66 = xor i8 %43, 1
  store i8 %66, ptr %65, align 1
  %67 = getelementptr inbounds nuw i8, ptr %7, i64 9
  %68 = xor i8 %45, 1
  store i8 %68, ptr %67, align 1
  %69 = getelementptr inbounds nuw i8, ptr %6, i64 10
  store i8 1, ptr %69, align 2
  %70 = getelementptr inbounds nuw i8, ptr %7, i64 10
  store i8 0, ptr %70, align 2
  %71 = call ptr @make_range(ptr noundef nonnull %0, ptr noundef nonnull %6, ptr noundef nonnull %7, i1 noundef zeroext false, ptr noundef null)
  %72 = load i32, ptr %71, align 4
  %73 = lshr i32 %72, 2
  %74 = zext nneg i32 %73 to i64
  %75 = getelementptr inbounds nuw i8, ptr %71, i64 %74
  %76 = getelementptr inbounds i8, ptr %75, i64 -1
  %77 = load i8, ptr %76, align 1
  %78 = and i8 %77, 1
  %.not17 = icmp eq i8 %78, 0
  call void @llvm.lifetime.end.p0(i64 16, ptr nonnull %6)
  call void @llvm.lifetime.end.p0(i64 16, ptr nonnull %7)
  br i1 %.not17, label %79, label %134

79:                                               ; preds = %range_cmp_bound_values.exit.thread.thread15.i, %bounds_adjacent.exit.thread, %bounds_adjacent.exit
  %80 = load i64, ptr %11, align 8
  %81 = getelementptr inbounds nuw i8, ptr %11, i64 8
  %82 = load i64, ptr %81, align 8
  %83 = load i64, ptr %8, align 8
  %84 = getelementptr inbounds nuw i8, ptr %8, i64 8
  %85 = load i64, ptr %84, align 8
  call void @llvm.lifetime.start.p0(i64 16, ptr nonnull %4)
  call void @llvm.lifetime.start.p0(i64 16, ptr nonnull %5)
  store i64 %80, ptr %4, align 8
  %86 = getelementptr inbounds nuw i8, ptr %4, i64 8
  store i64 %82, ptr %86, align 8
  store i64 %83, ptr %5, align 8
  %87 = getelementptr inbounds nuw i8, ptr %5, i64 8
  store i64 %85, ptr %87, align 8
  %88 = trunc i64 %82 to i1
  %89 = trunc i64 %85 to i1
  %90 = lshr i64 %85, 16
  %91 = trunc i64 %90 to i8
  %92 = lshr i64 %82, 16
  %93 = trunc i64 %92 to i8
  %94 = lshr i64 %82, 8
  %95 = trunc i64 %94 to i8
  %96 = lshr i64 %85, 8
  %97 = trunc i64 %96 to i8
  br i1 %88, label %98, label %105

98:                                               ; preds = %79
  br i1 %89, label %99, label %103

99:                                               ; preds = %98
  %100 = icmp eq i8 %93, %91
  br i1 %100, label %range_cmp_bound_values.exit.thread.thread15.i12, label %101

101:                                              ; preds = %99
  %102 = trunc i64 %92 to i1
  br i1 %102, label %range_cmp_bound_values.exit.thread12.i13, label %bounds_adjacent.exit15

103:                                              ; preds = %98
  %104 = trunc i64 %92 to i1
  br i1 %104, label %range_cmp_bound_values.exit.thread12.i13, label %bounds_adjacent.exit15

105:                                              ; preds = %79
  br i1 %89, label %106, label %range_cmp_bound_values.exit.i9

106:                                              ; preds = %105
  %107 = trunc i64 %90 to i1
  br i1 %107, label %bounds_adjacent.exit15, label %range_cmp_bound_values.exit.thread12.i13

range_cmp_bound_values.exit.i9:                   ; preds = %105
  %108 = getelementptr inbounds nuw i8, ptr %0, i64 296
  %109 = getelementptr inbounds nuw i8, ptr %0, i64 292
  %110 = load i32, ptr %109, align 4
  %111 = tail call i64 @FunctionCall2Coll(ptr noundef nonnull %108, i32 noundef %110, i64 noundef %80, i64 noundef %83) #14
  %112 = trunc i64 %111 to i32
  %113 = icmp slt i32 %112, 0
  br i1 %113, label %range_cmp_bound_values.exit.thread12.i13, label %range_cmp_bound_values.exit.thread.i10

range_cmp_bound_values.exit.thread12.i13:         ; preds = %range_cmp_bound_values.exit.i9, %106, %103, %101
  %114 = getelementptr inbounds nuw i8, ptr %0, i64 352
  %115 = load i32, ptr %114, align 8
  %.not.i14 = icmp eq i32 %115, 0
  br i1 %.not.i14, label %bounds_adjacent.exit15, label %116

116:                                              ; preds = %range_cmp_bound_values.exit.thread12.i13
  %117 = getelementptr inbounds nuw i8, ptr %4, i64 9
  %118 = xor i8 %95, 1
  store i8 %118, ptr %117, align 1
  %119 = getelementptr inbounds nuw i8, ptr %5, i64 9
  %120 = xor i8 %97, 1
  store i8 %120, ptr %119, align 1
  %121 = getelementptr inbounds nuw i8, ptr %4, i64 10
  store i8 1, ptr %121, align 2
  %122 = getelementptr inbounds nuw i8, ptr %5, i64 10
  store i8 0, ptr %122, align 2
  %123 = call ptr @make_range(ptr noundef nonnull %0, ptr noundef nonnull %4, ptr noundef nonnull %5, i1 noundef zeroext false, ptr noundef null)
  %124 = load i32, ptr %123, align 4
  %125 = lshr i32 %124, 2
  %126 = zext nneg i32 %125 to i64
  %127 = getelementptr inbounds nuw i8, ptr %123, i64 %126
  %128 = getelementptr inbounds i8, ptr %127, i64 -1
  %129 = load i8, ptr %128, align 1
  %130 = and i8 %129, 1
  %131 = icmp ne i8 %130, 0
  br label %bounds_adjacent.exit15

range_cmp_bound_values.exit.thread.i10:           ; preds = %range_cmp_bound_values.exit.i9
  %132 = icmp eq i32 %112, 0
  br i1 %132, label %range_cmp_bound_values.exit.thread.thread15.i12, label %bounds_adjacent.exit15

range_cmp_bound_values.exit.thread.thread15.i12:  ; preds = %range_cmp_bound_values.exit.thread.i10, %99
  %133 = icmp ne i8 %95, %97
  br label %bounds_adjacent.exit15

bounds_adjacent.exit15:                           ; preds = %101, %103, %106, %range_cmp_bound_values.exit.thread12.i13, %116, %range_cmp_bound_values.exit.thread.i10, %range_cmp_bound_values.exit.thread.thread15.i12
  %.1.i11 = phi i1 [ %133, %range_cmp_bound_values.exit.thread.thread15.i12 ], [ %131, %116 ], [ false, %range_cmp_bound_values.exit.thread12.i13 ], [ false, %range_cmp_bound_values.exit.thread.i10 ], [ false, %103 ], [ false, %101 ], [ false, %106 ]
  call void @llvm.lifetime.end.p0(i64 16, ptr nonnull %4)
  call void @llvm.lifetime.end.p0(i64 16, ptr nonnull %5)
  br label %134

134:                                              ; preds = %range_cmp_bound_values.exit.thread.thread15.i, %bounds_adjacent.exit, %bounds_adjacent.exit15, %21, %24
  %.0 = phi i1 [ false, %24 ], [ false, %21 ], [ true, %bounds_adjacent.exit ], [ %.1.i11, %bounds_adjacent.exit15 ], [ true, %range_cmp_bound_values.exit.thread.thread15.i ]
  call void @llvm.lifetime.end.p0(i64 1, ptr nonnull %13) #14
  call void @llvm.lifetime.end.p0(i64 1, ptr nonnull %12) #14
  call void @llvm.lifetime.end.p0(i64 16, ptr nonnull %11) #14
  call void @llvm.lifetime.end.p0(i64 16, ptr nonnull %10) #14
  call void @llvm.lifetime.end.p0(i64 16, ptr nonnull %9) #14
  call void @llvm.lifetime.end.p0(i64 16, ptr nonnull %8) #14
  ret i1 %.0
}